target datalayout = "e-m:e-p270:32:32-p271:32:32-p272:64:64-i64:64-i128:128-f80:128-n8:16:32:64-S128"
target triple = "x86_64-pc-linux-gnu"

%class.LRG = type { double, double, double, ptr, i32, i32, i32, i32, i32, i32, %class.RegMask, i32, i16, i32, i16, i16 }
%class.RegMask = type { %union.anon, i32, i32 }
%union.anon = type { [11 x i64] }

; Function Attrs: mustprogress nounwind uwtable
define internal noundef double @_ZL9raw_scoredd(double noundef %0, double noundef %1) #1 {
  %3 = alloca double, align 8
  %4 = alloca double, align 8
  store double %0, ptr %3, align 8
  store double %1, ptr %4, align 8
  %5 = load double, ptr %3, align 8
  %6 = load double, ptr %4, align 8
  %7 = fmul double %6, 1.600000e+04
  %8 = fneg double %7
  %9 = call double @llvm.fmuladd.f64(double %8, double 1.525880e-05, double %5)
  ret double %9
}

; Function Attrs: mustprogress nounwind uwtable
define hidden noundef double @_ZNK3LRG5scoreEv(ptr noundef nonnull align 8 dereferenceable(168) %0) #1 align 2 {
  %2 = alloca double, align 8
  %3 = alloca ptr, align 8
  %4 = alloca double, align 8
  store ptr %0, ptr %3, align 8
  %5 = load ptr, ptr %3, align 8
  %6 = getelementptr inbounds %class.LRG, ptr %5, i32 0, i32 0
  %7 = load double, ptr %6, align 8
  %8 = getelementptr inbounds %class.LRG, ptr %5, i32 0, i32 1
  %9 = load double, ptr %8, align 8
  %10 = call noundef double @_ZL9raw_scoredd(double noundef %7, double noundef %9)
  store double %10, ptr %4, align 8
  %11 = getelementptr inbounds %class.LRG, ptr %5, i32 0, i32 1
  %12 = load double, ptr %11, align 8
  %13 = fcmp oeq double %12, 0.000000e+00
  br i1 %13, label %14, label %15

14:                                               ; preds = %1
  store double 0x4733426172C74D82, ptr %2, align 8
  br label %50

15:                                               ; preds = %1
  %16 = getelementptr inbounds %class.LRG, ptr %5, i32 0, i32 15
  %17 = load i16, ptr %16, align 2
  %18 = lshr i16 %17, 6
  %19 = and i16 %18, 1
  %20 = zext i16 %19 to i32
  %21 = icmp ne i32 %20, 0
  br i1 %21, label %22, label %25

22:                                               ; preds = %15
  %23 = load double, ptr %4, align 8
  %24 = fadd double %23, 1.000000e+30
  store double %24, ptr %2, align 8
  br label %50

25:                                               ; preds = %15
  %26 = getelementptr inbounds %class.LRG, ptr %5, i32 0, i32 0
  %27 = load double, ptr %26, align 8
  %28 = getelementptr inbounds %class.LRG, ptr %5, i32 0, i32 1
  %29 = load double, ptr %28, align 8
  %30 = fmul double %29, 3.000000e+00
  %31 = fcmp oge double %27, %30
  br i1 %31, label %32, label %35

32:                                               ; preds = %25
  %33 = load double, ptr %4, align 8
  %34 = fadd double %33, 1.000000e+17
  store double %34, ptr %2, align 8
  br label %50

35:                                               ; preds = %25
  %36 = getelementptr inbounds %class.LRG, ptr %5, i32 0, i32 0
  %37 = load double, ptr %36, align 8
  %38 = getelementptr inbounds %class.LRG, ptr %5, i32 0, i32 0
  %39 = load double, ptr %38, align 8
  %40 = fadd double %37, %39
  %41 = getelementptr inbounds %class.LRG, ptr %5, i32 0, i32 1
  %42 = load double, ptr %41, align 8
  %43 = fmul double %42, 3.000000e+00
  %44 = fcmp oge double %40, %43
  br i1 %44, label %45, label %48

45:                                               ; preds = %35
  %46 = load double, ptr %4, align 8
  %47 = fadd double %46, 1.000000e+10
  store double %47, ptr %2, align 8
  br label %50

48:                                               ; preds = %35
  %49 = load double, ptr %4, align 8
  store double %49, ptr %2, align 8
  br label %50

50:                                               ; preds = %48, %45, %32, %22, %14
  %51 = load double, ptr %2, align 8
  ret double %51
}