; Function Attrs: mustprogress nofree norecurse nosync nounwind willreturn memory(argmem: read) uwtable
define hidden noundef double @_ZNK3LRG5scoreEv(ptr nocapture noundef nonnull readonly align 8 dereferenceable(168) %0) local_unnamed_addr #0 align 2 {
  %2 = load double, ptr %0, align 8
  %3 = getelementptr inbounds i8, ptr %0, i64 8
  %4 = load double, ptr %3, align 8
  %5 = fmul double %4, -1.600000e+04
  %6 = tail call noundef double @llvm.fmuladd.f64(double %5, double 1.525880e-05, double %2)
  %7 = fcmp oeq double %4, 0.000000e+00
  br i1 %7, label %24, label %8

8:                                                ; preds = %1
  %9 = getelementptr inbounds i8, ptr %0, i64 166
  %10 = load i16, ptr %9, align 2
  %11 = and i16 %10, 64
  %.not = icmp eq i16 %11, 0
  br i1 %.not, label %14, label %12

12:                                               ; preds = %8
  %13 = fadd double %6, 1.000000e+30
  br label %24

14:                                               ; preds = %8
  %15 = fmul double %4, 3.000000e+00
  %16 = fcmp ult double %2, %15
  br i1 %16, label %19, label %17

17:                                               ; preds = %14
  %18 = fadd double %6, 1.000000e+17
  br label %24

19:                                               ; preds = %14
  %20 = fadd double %2, %2
  %21 = fcmp ult double %20, %15
  br i1 %21, label %24, label %22

22:                                               ; preds = %19
  %23 = fadd double %6, 1.000000e+10
  br label %24

24:                                               ; preds = %19, %1, %22, %17, %12
  %.0 = phi double [ %13, %12 ], [ %18, %17 ], [ %23, %22 ], [ 0x4733426172C74D82, %1 ], [ %6, %19 ]
  ret double %.0
}